; Function Attrs: mustprogress nofree norecurse nounwind willreturn memory(readwrite, inaccessiblemem: none) uwtable
define void @_ZNK5boost6thread15get_thread_infoEv(ptr dead_on_unwind noalias nocapture writable writeonly sret(%"class.boost::shared_ptr") align 8 %0, ptr nocapture noundef nonnull readonly align 8 dereferenceable(16) %1) local_unnamed_addr #11 align 2 personality ptr @__gxx_personality_v0 {
  %3 = load ptr, ptr %1, align 8, !tbaa !74
  store ptr %3, ptr %0, align 8, !tbaa !74
  %4 = getelementptr inbounds nuw i8, ptr %0, i64 8
  %5 = getelementptr inbounds nuw i8, ptr %1, i64 8
  %6 = load ptr, ptr %5, align 8, !tbaa !30
  store ptr %6, ptr %4, align 8, !tbaa !30
  %.not.i.i = icmp eq ptr %6, null
  br i1 %.not.i.i, label %_ZN5boost10shared_ptrINS_6detail16thread_data_baseEEC2ERKS3_.exit, label %7

7:                                                ; preds = %2
  %8 = getelementptr inbounds nuw i8, ptr %6, i64 8
  %9 = atomicrmw add ptr %8, i32 1 monotonic, align 4
  br label %_ZN5boost10shared_ptrINS_6detail16thread_data_baseEEC2ERKS3_.exit

_ZN5boost10shared_ptrINS_6detail16thread_data_baseEEC2ERKS3_.exit: ; preds = %2, %7
  ret void
}